#include <math.h>
#include <stdio.h>
#include <stdlib.h>
#include <string.h>

main()
{
    int i,j,n,k;
    int x1,y1,x2,y2;
    int a[100][100];
    int b[100][100];
    int c[100][100];
    for(i=0;i<100;i++)
      {
          for(j=0;j<100;j++)
           {
              a[i][j]=0;
              b[i][j]=0;
              c[i][j]=0;
           }

      }
    scanf("%d %d",&x1,&y1);
    for(i=0;i<x1;i++)
      {
          for(j=0;j<y1;j++)
           {
               scanf("%d ",&a[i][j]);
           }

      }
       scanf("%d %d",&x2,&y2);
    for(i=0;i<x2;i++)
      {
          for(j=0;j<y2;j++)
           {
               scanf("%d ",&b[i][j]);
           }

      }
      for(i=0;i<x1;i++)
       {
           for(j=0;j<y2;j++)
            {
                for(k=0;k<x2;k++)
                 {
                     c[i][j]=c[i][j]+a[i][k]*b[k][j];
                 }


            }
       }
       for(i=0;i<x1;i++)
       {
           for(j=0;j<y2;j++)
            {
                printf("%d",c[i][j]);
                if(j<y2-1)
                printf(" ");
            }
           printf("\n");
       }




}
